target datalayout = "e-m:e-p270:32:32-p271:32:32-p272:64:64-i64:64-i128:128-f80:128-n8:16:32:64-S128"
target triple = "x86_64-pc-linux-gnu"

%"class.icu_77::Locale" = type <{ %"class.icu_77::UObject", [12 x i8], [6 x i8], [4 x i8], [2 x i8], i32, [4 x i8], ptr, [157 x i8], [3 x i8], ptr, i8, [7 x i8] }>
%"class.icu_77::UObject" = type { ptr }
%"class.icu_77::StringPiece" = type <{ ptr, i32, [4 x i8] }>

; Function Attrs: mustprogress nounwind uwtable
define linkonce_odr void @_ZN6icu_7711StringPieceC2EPKci(ptr noundef nonnull align 8 dereferenceable(12) %0, ptr noundef %1, i32 noundef %2) unnamed_addr #0 comdat align 2 {
  %4 = alloca ptr, align 8
  %5 = alloca ptr, align 8
  %6 = alloca i32, align 4
  store ptr %0, ptr %4, align 8, !tbaa !23
  store ptr %1, ptr %5, align 8, !tbaa !17
  store i32 %2, ptr %6, align 4, !tbaa !14
  %7 = load ptr, ptr %4, align 8
  %8 = getelementptr inbounds nuw %"class.icu_77::StringPiece", ptr %7, i32 0, i32 0
  %9 = load ptr, ptr %5, align 8, !tbaa !17
  store ptr %9, ptr %8, align 8, !tbaa !25
  %10 = getelementptr inbounds nuw %"class.icu_77::StringPiece", ptr %7, i32 0, i32 1
  %11 = load i32, ptr %6, align 4, !tbaa !14
  store i32 %11, ptr %10, align 8, !tbaa !27
  ret void
}

; Function Attrs: inlinehint mustprogress nounwind uwtable
define internal noundef signext i8 @_ZL9U_FAILURE10UErrorCode(i32 noundef %0) #2 {
  %2 = alloca i32, align 4
  store i32 %0, ptr %2, align 4, !tbaa !15
  %3 = load i32, ptr %2, align 4, !tbaa !15
  %4 = icmp sgt i32 %3, 0
  %5 = zext i1 %4 to i8
  ret i8 %5
}

; Function Attrs: mustprogress uwtable
define ptr @ulocale_openForLanguageTag_77(ptr noundef %0, i32 noundef %1, ptr noundef %2) #1 personality ptr @__gxx_personality_v0 {
  %4 = alloca ptr, align 8
  %5 = alloca ptr, align 8
  %6 = alloca i32, align 4
  %7 = alloca ptr, align 8
  %8 = alloca %"class.icu_77::Locale", align 8
  %9 = alloca %"class.icu_77::StringPiece", align 8
  %10 = alloca ptr, align 8
  %11 = alloca i32, align 4
  %12 = alloca i32, align 4
  store ptr %0, ptr %5, align 8, !tbaa !17
  store i32 %1, ptr %6, align 4, !tbaa !14
  store ptr %2, ptr %7, align 8, !tbaa !22
  %13 = load ptr, ptr %7, align 8, !tbaa !22
  %14 = load i32, ptr %13, align 4, !tbaa !15
  %15 = call noundef signext i8 @_ZL9U_FAILURE10UErrorCode(i32 noundef %14)
  %16 = icmp ne i8 %15, 0
  br i1 %16, label %17, label %18

17:                                               ; preds = %3
  store ptr null, ptr %4, align 8
  br label %46

18:                                               ; preds = %3
  call void @llvm.lifetime.start.p0(i64 224, ptr %8) #10
  %19 = load i32, ptr %6, align 4, !tbaa !14
  %20 = icmp slt i32 %19, 0
  br i1 %20, label %21, label %23

21:                                               ; preds = %18
  %22 = load ptr, ptr %5, align 8, !tbaa !17
  call void @_ZN6icu_7711StringPieceC1EPKc(ptr noundef nonnull align 8 dereferenceable(12) %9, ptr noundef %22)
  br label %26

23:                                               ; preds = %18
  %24 = load ptr, ptr %5, align 8, !tbaa !17
  %25 = load i32, ptr %6, align 4, !tbaa !14
  call void @_ZN6icu_7711StringPieceC2EPKci(ptr noundef nonnull align 8 dereferenceable(12) %9, ptr noundef %24, i32 noundef %25)
  br label %26

26:                                               ; preds = %23, %21
  %27 = load ptr, ptr %7, align 8, !tbaa !22
  %28 = getelementptr inbounds nuw { ptr, i32 }, ptr %9, i32 0, i32 0
  %29 = load ptr, ptr %28, align 8
  %30 = getelementptr inbounds nuw { ptr, i32 }, ptr %9, i32 0, i32 1
  %31 = load i32, ptr %30, align 8
  call void @_ZN6icu_776Locale14forLanguageTagENS_11StringPieceER10UErrorCode(ptr dead_on_unwind writable sret(%"class.icu_77::Locale") align 8 %8, ptr %29, i32 %31, ptr noundef nonnull align 4 dereferenceable(4) %27)
  %32 = load ptr, ptr %7, align 8, !tbaa !22
  %33 = load i32, ptr %32, align 4, !tbaa !15
  %34 = invoke noundef signext i8 @_ZL9U_FAILURE10UErrorCode(i32 noundef %33)
          to label %35 unwind label %38

35:                                               ; preds = %26
  %36 = icmp ne i8 %34, 0
  br i1 %36, label %37, label %42

37:                                               ; preds = %35
  store ptr null, ptr %4, align 8
  store i32 1, ptr %12, align 4
  br label %45

38:                                               ; preds = %42, %26
  %39 = landingpad { ptr, i32 }
          cleanup
  %40 = extractvalue { ptr, i32 } %39, 0
  store ptr %40, ptr %10, align 8
  %41 = extractvalue { ptr, i32 } %39, 1
  store i32 %41, ptr %11, align 4
  call void @_ZN6icu_776LocaleD1Ev(ptr noundef nonnull align 8 dereferenceable(217) %8) #10
  call void @llvm.lifetime.end.p0(i64 224, ptr %8) #10
  br label %48

42:                                               ; preds = %35
  %43 = invoke noundef ptr @_ZNK6icu_776Locale5cloneEv(ptr noundef nonnull align 8 dereferenceable(217) %8)
          to label %44 unwind label %38

44:                                               ; preds = %42
  store ptr %43, ptr %4, align 8
  store i32 1, ptr %12, align 4
  br label %45

45:                                               ; preds = %44, %37
  call void @_ZN6icu_776LocaleD1Ev(ptr noundef nonnull align 8 dereferenceable(217) %8) #10
  call void @llvm.lifetime.end.p0(i64 224, ptr %8) #10
  br label %46

46:                                               ; preds = %45, %17
  %47 = load ptr, ptr %4, align 8
  ret ptr %47

48:                                               ; preds = %38
  %49 = load ptr, ptr %10, align 8
  %50 = load i32, ptr %11, align 4
  %51 = insertvalue { ptr, i32 } poison, ptr %49, 0
  %52 = insertvalue { ptr, i32 } %51, i32 %50, 1
  resume { ptr, i32 } %52
}