; Function Attrs: mustprogress uwtable
define noundef ptr @ulocale_openForLanguageTag_77(ptr noundef %0, i32 noundef %1, ptr noundef %2) local_unnamed_addr #1 personality ptr @__gxx_personality_v0 {
  %4 = alloca %"class.icu_77::Locale", align 8
  %5 = alloca %"class.icu_77::StringPiece", align 8
  %6 = load i32, ptr %2, align 4, !tbaa !13
  %7 = icmp slt i32 %6, 1
  br i1 %7, label %8, label %23

8:                                                ; preds = %3
  call void @llvm.lifetime.start.p0(i64 224, ptr nonnull %4) #14
  %9 = icmp slt i32 %1, 0
  br i1 %9, label %10, label %11

10:                                               ; preds = %8
  call void @_ZN6icu_7711StringPieceC1EPKc(ptr noundef nonnull align 8 dereferenceable(12) %5, ptr noundef %0)
  %.pre = load ptr, ptr %5, align 8
  %.phi.trans.insert = getelementptr inbounds nuw i8, ptr %5, i64 8
  %.pre11 = load i32, ptr %.phi.trans.insert, align 8
  br label %13

11:                                               ; preds = %8
  store ptr %0, ptr %5, align 8, !tbaa !15
  %12 = getelementptr inbounds nuw i8, ptr %5, i64 8
  store i32 %1, ptr %12, align 8, !tbaa !17
  br label %13

13:                                               ; preds = %11, %10
  %14 = phi i32 [ %1, %11 ], [ %.pre11, %10 ]
  %15 = phi ptr [ %0, %11 ], [ %.pre, %10 ]
  call void @_ZN6icu_776Locale14forLanguageTagENS_11StringPieceER10UErrorCode(ptr dead_on_unwind nonnull writable sret(%"class.icu_77::Locale") align 8 %4, ptr %15, i32 %14, ptr noundef nonnull align 4 dereferenceable(4) %2)
  %16 = load i32, ptr %2, align 4, !tbaa !13
  %17 = icmp slt i32 %16, 1
  br i1 %17, label %20, label %22

18:                                               ; preds = %20
  %19 = landingpad { ptr, i32 }
          cleanup
  call void @_ZN6icu_776LocaleD1Ev(ptr noundef nonnull align 8 dereferenceable(217) %4) #14
  call void @llvm.lifetime.end.p0(i64 224, ptr nonnull %4) #14
  resume { ptr, i32 } %19

20:                                               ; preds = %13
  %21 = invoke noundef ptr @_ZNK6icu_776Locale5cloneEv(ptr noundef nonnull align 8 dereferenceable(217) %4)
          to label %22 unwind label %18

22:                                               ; preds = %20, %13
  %.1 = phi ptr [ null, %13 ], [ %21, %20 ]
  call void @_ZN6icu_776LocaleD1Ev(ptr noundef nonnull align 8 dereferenceable(217) %4) #14
  call void @llvm.lifetime.end.p0(i64 224, ptr nonnull %4) #14
  br label %23

23:                                               ; preds = %3, %22
  %.0 = phi ptr [ %.1, %22 ], [ null, %3 ]
  ret ptr %.0
}